target datalayout = "e-m:e-p270:32:32-p271:32:32-p272:64:64-i64:64-i128:128-f80:128-n8:16:32:64-S128"
target triple = "x86_64-pc-linux-gnu"

; Function Attrs: nounwind uwtable
define i32 @Extra_bddCheckUnateNaive(ptr noundef %0, ptr noundef %1, i32 noundef %2) #0 {
  %4 = alloca ptr, align 8
  %5 = alloca ptr, align 8
  %6 = alloca i32, align 4
  %7 = alloca ptr, align 8
  %8 = alloca ptr, align 8
  %9 = alloca i32, align 4
  store ptr %0, ptr %4, align 8, !tbaa !3
  store ptr %1, ptr %5, align 8, !tbaa !8
  store i32 %2, ptr %6, align 4, !tbaa !31
  call void @llvm.lifetime.start.p0(i64 8, ptr %7) #6
  call void @llvm.lifetime.start.p0(i64 8, ptr %8) #6
  call void @llvm.lifetime.start.p0(i64 4, ptr %9) #6
  %10 = load ptr, ptr %4, align 8, !tbaa !3
  %11 = load ptr, ptr %5, align 8, !tbaa !8
  %12 = load ptr, ptr %4, align 8, !tbaa !3
  %13 = load i32, ptr %6, align 4, !tbaa !31
  %14 = call ptr @Cudd_bddIthVar(ptr noundef %12, i32 noundef %13)
  %15 = ptrtoint ptr %14 to i64
  %16 = xor i64 %15, 1
  %17 = inttoptr i64 %16 to ptr
  %18 = call ptr @Cudd_Cofactor(ptr noundef %10, ptr noundef %11, ptr noundef %17)
  store ptr %18, ptr %7, align 8, !tbaa !8
  %19 = load ptr, ptr %7, align 8, !tbaa !8
  call void @Cudd_Ref(ptr noundef %19)
  %20 = load ptr, ptr %4, align 8, !tbaa !3
  %21 = load ptr, ptr %5, align 8, !tbaa !8
  %22 = load ptr, ptr %4, align 8, !tbaa !3
  %23 = load i32, ptr %6, align 4, !tbaa !31
  %24 = call ptr @Cudd_bddIthVar(ptr noundef %22, i32 noundef %23)
  %25 = call ptr @Cudd_Cofactor(ptr noundef %20, ptr noundef %21, ptr noundef %24)
  store ptr %25, ptr %8, align 8, !tbaa !8
  %26 = load ptr, ptr %8, align 8, !tbaa !8
  call void @Cudd_Ref(ptr noundef %26)
  %27 = load ptr, ptr %4, align 8, !tbaa !3
  %28 = load ptr, ptr %7, align 8, !tbaa !8
  %29 = load ptr, ptr %8, align 8, !tbaa !8
  %30 = call i32 @Cudd_bddLeq(ptr noundef %27, ptr noundef %28, ptr noundef %29)
  %31 = icmp ne i32 %30, 0
  br i1 %31, label %32, label %33

32:                                               ; preds = %3
  store i32 1, ptr %9, align 4, !tbaa !31
  br label %42

33:                                               ; preds = %3
  %34 = load ptr, ptr %4, align 8, !tbaa !3
  %35 = load ptr, ptr %8, align 8, !tbaa !8
  %36 = load ptr, ptr %7, align 8, !tbaa !8
  %37 = call i32 @Cudd_bddLeq(ptr noundef %34, ptr noundef %35, ptr noundef %36)
  %38 = icmp ne i32 %37, 0
  br i1 %38, label %39, label %40

39:                                               ; preds = %33
  store i32 -1, ptr %9, align 4, !tbaa !31
  br label %41

40:                                               ; preds = %33
  store i32 0, ptr %9, align 4, !tbaa !31
  br label %41

41:                                               ; preds = %40, %39
  br label %42

42:                                               ; preds = %41, %32
  %43 = load ptr, ptr %4, align 8, !tbaa !3
  %44 = load ptr, ptr %7, align 8, !tbaa !8
  call void @Cudd_RecursiveDeref(ptr noundef %43, ptr noundef %44)
  %45 = load ptr, ptr %4, align 8, !tbaa !3
  %46 = load ptr, ptr %8, align 8, !tbaa !8
  call void @Cudd_RecursiveDeref(ptr noundef %45, ptr noundef %46)
  %47 = load i32, ptr %9, align 4, !tbaa !31
  call void @llvm.lifetime.end.p0(i64 4, ptr %9) #6
  call void @llvm.lifetime.end.p0(i64 8, ptr %8) #6
  call void @llvm.lifetime.end.p0(i64 8, ptr %7) #6
  ret i32 %47
}