; Function Attrs: nounwind uwtable
define range(i32 -1, 2) i32 @Extra_bddCheckUnateNaive(ptr noundef %0, ptr noundef %1, i32 noundef %2) local_unnamed_addr #0 {
  %4 = tail call ptr @Cudd_bddIthVar(ptr noundef %0, i32 noundef %2) #9
  %5 = ptrtoint ptr %4 to i64
  %6 = xor i64 %5, 1
  %7 = inttoptr i64 %6 to ptr
  %8 = tail call ptr @Cudd_Cofactor(ptr noundef %0, ptr noundef %1, ptr noundef %7) #9
  tail call void @Cudd_Ref(ptr noundef %8) #9
  %9 = tail call ptr @Cudd_bddIthVar(ptr noundef %0, i32 noundef %2) #9
  %10 = tail call ptr @Cudd_Cofactor(ptr noundef %0, ptr noundef %1, ptr noundef %9) #9
  tail call void @Cudd_Ref(ptr noundef %10) #9
  %11 = tail call i32 @Cudd_bddLeq(ptr noundef %0, ptr noundef %8, ptr noundef %10) #9
  %.not = icmp eq i32 %11, 0
  br i1 %.not, label %12, label %14

12:                                               ; preds = %3
  %13 = tail call i32 @Cudd_bddLeq(ptr noundef %0, ptr noundef %10, ptr noundef %8) #9
  %.not20 = icmp ne i32 %13, 0
  %. = sext i1 %.not20 to i32
  br label %14

14:                                               ; preds = %12, %3
  %.0 = phi i32 [ 1, %3 ], [ %., %12 ]
  tail call void @Cudd_RecursiveDeref(ptr noundef %0, ptr noundef %8) #9
  tail call void @Cudd_RecursiveDeref(ptr noundef %0, ptr noundef %10) #9
  ret i32 %.0
}